; Function Attrs: mustprogress nounwind uwtable
define dso_local void @_ZN4llvm3pdb20ModuleDebugStreamRefC2ERKNS0_19DbiModuleDescriptorESt10unique_ptrINS_3msf17MappedBlockStreamESt14default_deleteIS7_EE(ptr noundef nonnull align 8 dereferenceable(400) %0, ptr nocapture noundef nonnull readonly align 8 dereferenceable(40) %1, ptr noundef nonnull %2) unnamed_addr #0 align 2 {
  tail call void @llvm.memcpy.p0.p0.i64(ptr noundef nonnull align 8 dereferenceable(40) %0, ptr noundef nonnull align 8 dereferenceable(40) %1, i64 40, i1 false)
  %4 = getelementptr inbounds nuw i8, ptr %0, i64 48
  tail call void @_ZNSt12__shared_ptrIN4llvm3msf17MappedBlockStreamELN9__gnu_cxx12_Lock_policyE2EEC2IS2_St14default_deleteIS2_EvEEOSt10unique_ptrIT_T0_E(ptr noundef nonnull align 8 dereferenceable(16) %4, ptr noundef nonnull align 8 dereferenceable(8) %2)
  %5 = getelementptr inbounds nuw i8, ptr %0, i64 64
  %6 = getelementptr inbounds i8, ptr %0, i64 104
  store i8 0, ptr %6, align 8
  tail call void @llvm.memset.p0.i64(ptr noundef nonnull align 8 dereferenceable(32) %5, i8 0, i64 32, i1 false)
  %7 = getelementptr inbounds i8, ptr %0, i64 116
  %8 = getelementptr inbounds i8, ptr %0, i64 168
  store i8 0, ptr %8, align 8
  %9 = getelementptr inbounds nuw i8, ptr %0, i64 176
  %10 = getelementptr inbounds i8, ptr %0, i64 224
  store i8 0, ptr %10, align 8
  tail call void @llvm.memset.p0.i64(ptr noundef nonnull align 8 dereferenceable(40) %9, i8 0, i64 40, i1 false)
  %11 = getelementptr inbounds nuw i8, ptr %0, i64 232
  %12 = getelementptr inbounds i8, ptr %0, i64 280
  store i8 0, ptr %12, align 8
  tail call void @llvm.memset.p0.i64(ptr noundef nonnull align 8 dereferenceable(40) %11, i8 0, i64 40, i1 false)
  %13 = getelementptr inbounds nuw i8, ptr %0, i64 288
  %14 = getelementptr inbounds i8, ptr %0, i64 336
  store i8 0, ptr %14, align 8
  tail call void @llvm.memset.p0.i64(ptr noundef nonnull align 8 dereferenceable(40) %13, i8 0, i64 40, i1 false)
  %15 = getelementptr inbounds nuw i8, ptr %0, i64 344
  %16 = getelementptr inbounds i8, ptr %0, i64 384
  store i8 0, ptr %16, align 8
  tail call void @llvm.memset.p0.i64(ptr noundef nonnull align 8 dereferenceable(32) %15, i8 0, i64 32, i1 false)
  %17 = getelementptr inbounds i8, ptr %0, i64 396
  store i32 0, ptr %17, align 4
  tail call void @llvm.memset.p0.i64(ptr noundef nonnull align 4 dereferenceable(44) %7, i8 0, i64 44, i1 false)
  ret void
}